target datalayout = "e-m:e-p270:32:32-p271:32:32-p272:64:64-i64:64-i128:128-f80:128-n8:16:32:64-S128"
target triple = "x86_64-pc-linux-gnu"

; Function Attrs: nounwind uwtable
define internal i64 @get_size(ptr noundef %0, ptr noundef %1, i32 noundef %2, ptr noundef %3) #0 {
  %5 = alloca ptr, align 8
  %6 = alloca ptr, align 8
  %7 = alloca i32, align 4
  %8 = alloca ptr, align 8
  %9 = alloca i64, align 8
  %10 = alloca ptr, align 8
  store ptr %0, ptr %5, align 8, !tbaa !13
  store ptr %1, ptr %6, align 8, !tbaa !30
  store i32 %2, ptr %7, align 4, !tbaa !4
  store ptr %3, ptr %8, align 8, !tbaa !8
  call void @llvm.lifetime.start.p0(i64 8, ptr %9) #11
  store i64 -1, ptr %9, align 8, !tbaa !11
  call void @llvm.lifetime.start.p0(i64 8, ptr %10) #11
  store ptr null, ptr %10, align 8, !tbaa !13
  %11 = call ptr @__ctype_b_loc() #16
  %12 = load ptr, ptr %11, align 8, !tbaa !32
  %13 = load ptr, ptr %8, align 8, !tbaa !8
  %14 = load ptr, ptr %6, align 8, !tbaa !30
  %15 = load i32, ptr %14, align 4, !tbaa !4
  %16 = sext i32 %15 to i64
  %17 = getelementptr inbounds ptr, ptr %13, i64 %16
  %18 = load ptr, ptr %17, align 8, !tbaa !13
  %19 = getelementptr inbounds i8, ptr %18, i64 2
  %20 = load i8, ptr %19, align 1, !tbaa !17
  %21 = sext i8 %20 to i32
  %22 = sext i32 %21 to i64
  %23 = getelementptr inbounds i16, ptr %12, i64 %22
  %24 = load i16, ptr %23, align 2, !tbaa !34
  %25 = zext i16 %24 to i32
  %26 = and i32 %25, 2048
  %27 = icmp ne i32 %26, 0
  br i1 %27, label %28, label %40

28:                                               ; preds = %4
  %29 = load ptr, ptr %8, align 8, !tbaa !8
  %30 = load ptr, ptr %6, align 8, !tbaa !30
  %31 = load i32, ptr %30, align 4, !tbaa !4
  %32 = sext i32 %31 to i64
  %33 = getelementptr inbounds ptr, ptr %29, i64 %32
  %34 = load ptr, ptr %33, align 8, !tbaa !13
  %35 = getelementptr inbounds i8, ptr %34, i64 2
  %36 = call i64 @strtol(ptr noundef %35, ptr noundef %10, i32 noundef 10) #11
  store i64 %36, ptr %9, align 8, !tbaa !11
  %37 = load ptr, ptr %6, align 8, !tbaa !30
  %38 = load i32, ptr %37, align 4, !tbaa !4
  %39 = add nsw i32 %38, 1
  store i32 %39, ptr %37, align 4, !tbaa !4
  br label %84

40:                                               ; preds = %4
  %41 = load ptr, ptr %8, align 8, !tbaa !8
  %42 = load ptr, ptr %6, align 8, !tbaa !30
  %43 = load i32, ptr %42, align 4, !tbaa !4
  %44 = sext i32 %43 to i64
  %45 = getelementptr inbounds ptr, ptr %41, i64 %44
  %46 = load ptr, ptr %45, align 8, !tbaa !13
  %47 = getelementptr inbounds i8, ptr %46, i64 2
  %48 = load i8, ptr %47, align 1, !tbaa !17
  %49 = sext i8 %48 to i32
  %50 = icmp ne i32 %49, 0
  br i1 %50, label %57, label %51

51:                                               ; preds = %40
  %52 = load ptr, ptr %6, align 8, !tbaa !30
  %53 = load i32, ptr %52, align 4, !tbaa !4
  %54 = add nsw i32 %53, 1
  %55 = load i32, ptr %7, align 4, !tbaa !4
  %56 = icmp sge i32 %54, %55
  br i1 %56, label %57, label %59

57:                                               ; preds = %51, %40
  %58 = load ptr, ptr %5, align 8, !tbaa !13
  call void @usage(ptr noundef %58)
  br label %83

59:                                               ; preds = %51
  %60 = load ptr, ptr %8, align 8, !tbaa !8
  %61 = load ptr, ptr %6, align 8, !tbaa !30
  %62 = load i32, ptr %61, align 4, !tbaa !4
  %63 = add nsw i32 %62, 1
  %64 = sext i32 %63 to i64
  %65 = getelementptr inbounds ptr, ptr %60, i64 %64
  %66 = load ptr, ptr %65, align 8, !tbaa !13
  %67 = call i64 @strtol(ptr noundef %66, ptr noundef %10, i32 noundef 0) #11
  store i64 %67, ptr %9, align 8, !tbaa !11
  %68 = load ptr, ptr %10, align 8, !tbaa !13
  %69 = load ptr, ptr %8, align 8, !tbaa !8
  %70 = load ptr, ptr %6, align 8, !tbaa !30
  %71 = load i32, ptr %70, align 4, !tbaa !4
  %72 = add nsw i32 %71, 1
  %73 = sext i32 %72 to i64
  %74 = getelementptr inbounds ptr, ptr %69, i64 %73
  %75 = load ptr, ptr %74, align 8, !tbaa !13
  %76 = icmp eq ptr %68, %75
  br i1 %76, label %77, label %79

77:                                               ; preds = %59
  %78 = load ptr, ptr %5, align 8, !tbaa !13
  call void @usage(ptr noundef %78)
  br label %79

79:                                               ; preds = %77, %59
  %80 = load ptr, ptr %6, align 8, !tbaa !30
  %81 = load i32, ptr %80, align 4, !tbaa !4
  %82 = add nsw i32 %81, 2
  store i32 %82, ptr %80, align 4, !tbaa !4
  br label %83

83:                                               ; preds = %79, %57
  br label %84

84:                                               ; preds = %83, %28
  %85 = load ptr, ptr %10, align 8, !tbaa !13
  %86 = icmp ne ptr %85, null
  br i1 %86, label %87, label %114

87:                                               ; preds = %84
  %88 = load ptr, ptr %10, align 8, !tbaa !13
  %89 = getelementptr inbounds i8, ptr %88, i64 0
  %90 = load i8, ptr %89, align 1, !tbaa !17
  %91 = sext i8 %90 to i32
  %92 = icmp ne i32 %91, 0
  br i1 %92, label %93, label %114

93:                                               ; preds = %87
  %94 = load ptr, ptr %10, align 8, !tbaa !13
  %95 = getelementptr inbounds i8, ptr %94, i64 1
  %96 = load i8, ptr %95, align 1, !tbaa !17
  %97 = icmp ne i8 %96, 0
  br i1 %97, label %114, label %98

98:                                               ; preds = %93
  %99 = load ptr, ptr %10, align 8, !tbaa !13
  %100 = load i8, ptr %99, align 1, !tbaa !17
  %101 = sext i8 %100 to i32
  switch i32 %101, label %111 [
    i32 71, label %102
    i32 103, label %102
    i32 77, label %105
    i32 109, label %105
    i32 107, label %108
  ]

102:                                              ; preds = %98, %98
  %103 = load i64, ptr %9, align 8, !tbaa !11
  %104 = mul nsw i64 %103, 1073741824
  store i64 %104, ptr %9, align 8, !tbaa !11
  br label %113

105:                                              ; preds = %98, %98
  %106 = load i64, ptr %9, align 8, !tbaa !11
  %107 = mul nsw i64 %106, 1048576
  store i64 %107, ptr %9, align 8, !tbaa !11
  br label %113

108:                                              ; preds = %98
  %109 = load i64, ptr %9, align 8, !tbaa !11
  %110 = mul nsw i64 %109, 1024
  store i64 %110, ptr %9, align 8, !tbaa !11
  br label %113

111:                                              ; preds = %98
  %112 = load ptr, ptr %5, align 8, !tbaa !13
  call void @usage(ptr noundef %112)
  br label %113

113:                                              ; preds = %111, %108, %105, %102
  br label %126

114:                                              ; preds = %93, %87, %84
  %115 = load ptr, ptr %10, align 8, !tbaa !13
  %116 = icmp ne ptr %115, null
  br i1 %116, label %117, label %125

117:                                              ; preds = %114
  %118 = load ptr, ptr %10, align 8, !tbaa !13
  %119 = getelementptr inbounds i8, ptr %118, i64 0
  %120 = load i8, ptr %119, align 1, !tbaa !17
  %121 = sext i8 %120 to i32
  %122 = icmp ne i32 %121, 0
  br i1 %122, label %123, label %125

123:                                              ; preds = %117
  %124 = load ptr, ptr %5, align 8, !tbaa !13
  call void @usage(ptr noundef %124)
  br label %125

125:                                              ; preds = %123, %117, %114
  br label %126

126:                                              ; preds = %125, %113
  %127 = load i64, ptr %9, align 8, !tbaa !11
  call void @llvm.lifetime.end.p0(i64 8, ptr %10) #11
  call void @llvm.lifetime.end.p0(i64 8, ptr %9) #11
  ret i64 %127
}