; Function Attrs: nofree nounwind uwtable
define internal fastcc i64 @get_size(ptr noundef %0, ptr noundef nonnull captures(none) %1, i32 noundef %2, ptr noundef readonly captures(none) %3) unnamed_addr #5 {
  %5 = alloca ptr, align 8
  call void @llvm.lifetime.start.p0(i64 8, ptr nonnull %5) #18
  store ptr null, ptr %5, align 8, !tbaa !10
  %6 = tail call ptr @__ctype_b_loc() #26
  %7 = load ptr, ptr %6, align 8, !tbaa !29
  %8 = load i32, ptr %1, align 4, !tbaa !4
  %9 = sext i32 %8 to i64
  %10 = getelementptr inbounds ptr, ptr %3, i64 %9
  %11 = load ptr, ptr %10, align 8, !tbaa !10
  %12 = getelementptr inbounds nuw i8, ptr %11, i64 2
  %13 = load i8, ptr %12, align 1, !tbaa !13
  %14 = sext i8 %13 to i64
  %15 = getelementptr inbounds i16, ptr %7, i64 %14
  %16 = load i16, ptr %15, align 2, !tbaa !31
  %17 = and i16 %16, 2048
  %.not = icmp eq i16 %17, 0
  br i1 %.not, label %22, label %18

18:                                               ; preds = %4
  %19 = call i64 @strtol(ptr noundef nonnull %12, ptr noundef nonnull %5, i32 noundef 10) #18
  %20 = load i32, ptr %1, align 4, !tbaa !4
  %21 = add nsw i32 %20, 1
  %.pre = load ptr, ptr %5, align 8, !tbaa !10
  br label %41

22:                                               ; preds = %4
  %.not25 = icmp eq i8 %13, 0
  br i1 %.not25, label %23, label %25

23:                                               ; preds = %22
  %24 = add nsw i32 %8, 1
  %.not26 = icmp slt i32 %24, %2
  br i1 %.not26, label %26, label %25

25:                                               ; preds = %23, %22
  tail call fastcc void @usage(ptr noundef %0)
  unreachable

26:                                               ; preds = %23
  %27 = sext i32 %24 to i64
  %28 = getelementptr inbounds ptr, ptr %3, i64 %27
  %29 = load ptr, ptr %28, align 8, !tbaa !10
  %30 = call i64 @strtol(ptr noundef %29, ptr noundef nonnull %5, i32 noundef 0) #18
  %31 = load ptr, ptr %5, align 8, !tbaa !10
  %32 = load i32, ptr %1, align 4, !tbaa !4
  %33 = sext i32 %32 to i64
  %34 = getelementptr ptr, ptr %3, i64 %33
  %35 = getelementptr i8, ptr %34, i64 8
  %36 = load ptr, ptr %35, align 8, !tbaa !10
  %37 = icmp eq ptr %31, %36
  br i1 %37, label %38, label %39

38:                                               ; preds = %26
  tail call fastcc void @usage(ptr noundef %0)
  unreachable

39:                                               ; preds = %26
  %40 = add nsw i32 %32, 2
  br label %41

41:                                               ; preds = %39, %18
  %42 = phi ptr [ %.pre, %18 ], [ %31, %39 ]
  %storemerge = phi i32 [ %21, %18 ], [ %40, %39 ]
  %.0 = phi i64 [ %19, %18 ], [ %30, %39 ]
  store i32 %storemerge, ptr %1, align 4, !tbaa !4
  %.not27 = icmp eq ptr %42, null
  br i1 %.not27, label %.thread32, label %43

43:                                               ; preds = %41
  %44 = load i8, ptr %42, align 1, !tbaa !13
  %.not28 = icmp eq i8 %44, 0
  br i1 %.not28, label %.thread32, label %45

45:                                               ; preds = %43
  %46 = getelementptr inbounds nuw i8, ptr %42, i64 1
  %47 = load i8, ptr %46, align 1, !tbaa !13
  %.not29 = icmp eq i8 %47, 0
  br i1 %.not29, label %48, label %56

48:                                               ; preds = %45
  switch i8 %44, label %55 [
    i8 71, label %49
    i8 103, label %49
    i8 77, label %51
    i8 109, label %51
    i8 107, label %53
  ]

49:                                               ; preds = %48, %48
  %50 = shl nsw i64 %.0, 30
  br label %.thread32

51:                                               ; preds = %48, %48
  %52 = shl nsw i64 %.0, 20
  br label %.thread32

53:                                               ; preds = %48
  %54 = shl nsw i64 %.0, 10
  br label %.thread32

55:                                               ; preds = %48
  tail call fastcc void @usage(ptr noundef %0)
  unreachable

56:                                               ; preds = %45
  tail call fastcc void @usage(ptr noundef %0)
  unreachable

.thread32:                                        ; preds = %43, %41, %49, %51, %53
  %.1 = phi i64 [ %54, %53 ], [ %52, %51 ], [ %50, %49 ], [ %.0, %41 ], [ %.0, %43 ]
  call void @llvm.lifetime.end.p0(i64 8, ptr nonnull %5) #18
  ret i64 %.1
}